; Function Attrs: nounwind uwtable
define internal fastcc noalias noundef ptr @populateLivenessVector(ptr noundef nonnull readonly captures(none) %0, ptr noundef readonly captures(none) %1) unnamed_addr #0 {
  %3 = tail call noalias dereferenceable_or_null(16) ptr @malloc(i64 noundef 16) #11
  %4 = getelementptr inbounds nuw i8, ptr %3, i64 4
  store i32 0, ptr %4, align 4
  store i32 100, ptr %3, align 8
  %5 = tail call noalias dereferenceable_or_null(800) ptr @malloc(i64 noundef 800) #11
  %6 = getelementptr inbounds nuw i8, ptr %3, i64 8
  store ptr %5, ptr %6, align 8
  %7 = getelementptr i8, ptr %0, i64 48
  %.val14 = load ptr, ptr %7, align 8
  %8 = getelementptr i8, ptr %.val14, i64 4
  %.val.val15 = load i32, ptr %8, align 4
  %9 = icmp sgt i32 %.val.val15, 0
  br i1 %9, label %.lr.ph, label %.critedge

.lr.ph:                                           ; preds = %2
  %10 = getelementptr i8, ptr %1, i64 24
  br label %11

11:                                               ; preds = %.lr.ph, %49
  %indvars.iv = phi i64 [ 0, %.lr.ph ], [ %indvars.iv.next, %49 ]
  %.val18 = phi ptr [ %.val14, %.lr.ph ], [ %.val, %49 ]
  %.01116 = phi i32 [ 0, %.lr.ph ], [ %.1, %49 ]
  %12 = getelementptr i8, ptr %.val18, i64 8
  %.val12.val = load ptr, ptr %12, align 8
  %13 = getelementptr inbounds nuw ptr, ptr %.val12.val, i64 %indvars.iv
  %14 = load ptr, ptr %13, align 8
  %15 = tail call ptr @Abc_ObjName(ptr noundef %14) #10
  %16 = tail call ptr @strstr(ptr noundef nonnull dereferenceable(1) %15, ptr noundef nonnull dereferenceable(1) @.str.4) #13
  %.not = icmp eq ptr %16, null
  br i1 %.not, label %49, label %17

17:                                               ; preds = %11
  %.val13 = load ptr, ptr %10, align 8
  %18 = getelementptr i8, ptr %.val13, i64 8
  %.val13.val = load ptr, ptr %18, align 8
  %19 = getelementptr inbounds nuw ptr, ptr %.val13.val, i64 %indvars.iv
  %20 = load ptr, ptr %19, align 8
  %21 = load i32, ptr %4, align 4
  %22 = load i32, ptr %3, align 8
  %23 = icmp eq i32 %21, %22
  br i1 %23, label %24, label %.Vec_PtrGrow.exit11_crit_edge.i

.Vec_PtrGrow.exit11_crit_edge.i:                  ; preds = %17
  %.pre.i = load ptr, ptr %6, align 8
  br label %Vec_PtrPush.exit

24:                                               ; preds = %17
  %25 = icmp slt i32 %21, 16
  br i1 %25, label %26, label %33

26:                                               ; preds = %24
  %27 = load ptr, ptr %6, align 8
  %.not9.i.i = icmp eq ptr %27, null
  br i1 %.not9.i.i, label %30, label %28

28:                                               ; preds = %26
  %29 = tail call dereferenceable_or_null(128) ptr @realloc(ptr noundef nonnull %27, i64 noundef 128) #12
  br label %Vec_PtrGrow.exit.i

30:                                               ; preds = %26
  %31 = tail call noalias dereferenceable_or_null(128) ptr @malloc(i64 noundef 128) #11
  br label %Vec_PtrGrow.exit.i

Vec_PtrGrow.exit.i:                               ; preds = %30, %28
  %32 = phi ptr [ %29, %28 ], [ %31, %30 ]
  store ptr %32, ptr %6, align 8
  store i32 16, ptr %3, align 8
  br label %Vec_PtrPush.exit

33:                                               ; preds = %24
  %34 = shl nuw nsw i32 %21, 1
  %35 = load ptr, ptr %6, align 8
  %.not9.i10.i = icmp eq ptr %35, null
  %36 = zext nneg i32 %34 to i64
  %37 = shl nuw nsw i64 %36, 3
  br i1 %.not9.i10.i, label %40, label %38

38:                                               ; preds = %33
  %39 = tail call ptr @realloc(ptr noundef nonnull %35, i64 noundef %37) #12
  br label %42

40:                                               ; preds = %33
  %41 = tail call noalias ptr @malloc(i64 noundef %37) #11
  br label %42

42:                                               ; preds = %40, %38
  %43 = phi ptr [ %39, %38 ], [ %41, %40 ]
  store ptr %43, ptr %6, align 8
  store i32 %34, ptr %3, align 8
  br label %Vec_PtrPush.exit

Vec_PtrPush.exit:                                 ; preds = %.Vec_PtrGrow.exit11_crit_edge.i, %Vec_PtrGrow.exit.i, %42
  %44 = phi ptr [ %.pre.i, %.Vec_PtrGrow.exit11_crit_edge.i ], [ %43, %42 ], [ %32, %Vec_PtrGrow.exit.i ]
  %45 = add nsw i32 %21, 1
  store i32 %45, ptr %4, align 4
  %46 = sext i32 %21 to i64
  %47 = getelementptr inbounds ptr, ptr %44, i64 %46
  store ptr %20, ptr %47, align 8
  %48 = add nsw i32 %.01116, 1
  br label %49

49:                                               ; preds = %11, %Vec_PtrPush.exit
  %.1 = phi i32 [ %48, %Vec_PtrPush.exit ], [ %.01116, %11 ]
  %indvars.iv.next = add nuw nsw i64 %indvars.iv, 1
  %.val = load ptr, ptr %7, align 8
  %50 = getelementptr i8, ptr %.val, i64 4
  %.val.val = load i32, ptr %50, align 4
  %51 = sext i32 %.val.val to i64
  %52 = icmp slt i64 %indvars.iv.next, %51
  br i1 %52, label %11, label %.critedge, !llvm.loop !22

.critedge:                                        ; preds = %49, %2
  %.011.lcssa = phi i32 [ 0, %2 ], [ %.1, %49 ]
  %53 = tail call i32 (ptr, ...) @printf(ptr noundef nonnull dereferenceable(1) @.str.5, i32 noundef %.011.lcssa)
  ret ptr %3
}